; ModuleID = 'source-C-CXX/59/1513.c'
source_filename = "source-C-CXX/59/1513.c"
target datalayout = "e-m:e-p270:32:32-p271:32:32-p272:64:64-i64:64-f80:128-n8:16:32:64-S128"
target triple = "x86_64-pc-linux-gnu"

@.str = private unnamed_addr constant [3 x i8] c"%d\00", align 1
@.str.1 = private unnamed_addr constant [7 x i8] c"%d %d\0A\00", align 1
@.str.2 = private unnamed_addr constant [6 x i8] c"empty\00", align 1

; Function Attrs: nofree norecurse nosync nounwind readnone sspstrong uwtable
define dso_local i32 @sushu(i32 %0) local_unnamed_addr #0 {
  %2 = icmp sgt i32 %0, 2
  br i1 %2, label %3, label %16

3:                                                ; preds = %1
  %4 = and i32 %0, 1
  %5 = icmp eq i32 %4, 0
  br i1 %5, label %16, label %6

6:                                                ; preds = %3, %9
  %7 = phi i32 [ %12, %9 ], [ 3, %3 ]
  %8 = icmp eq i32 %7, %0
  br i1 %8, label %13, label %9, !llvm.loop !5

9:                                                ; preds = %6
  %10 = srem i32 %0, %7
  %11 = icmp eq i32 %10, 0
  %12 = add nuw nsw i32 %7, 1
  br i1 %11, label %13, label %6, !llvm.loop !5

13:                                               ; preds = %6, %9
  %14 = icmp sge i32 %7, %0
  %15 = zext i1 %14 to i32
  br label %16

16:                                               ; preds = %13, %3, %1
  %17 = phi i32 [ 1, %1 ], [ 0, %3 ], [ %15, %13 ]
  ret i32 %17
}

; Function Attrs: argmemonly mustprogress nofree nosync nounwind willreturn
declare void @llvm.lifetime.start.p0i8(i64 immarg, i8* nocapture) #1

; Function Attrs: argmemonly mustprogress nofree nosync nounwind willreturn
declare void @llvm.lifetime.end.p0i8(i64 immarg, i8* nocapture) #1

; Function Attrs: nofree nounwind sspstrong uwtable
define dso_local i32 @main() local_unnamed_addr #2 {
  %1 = alloca i32, align 4
  %2 = bitcast i32* %1 to i8*
  call void @llvm.lifetime.start.p0i8(i64 4, i8* nonnull %2) #4
  %3 = call i32 (i8*, ...) @__isoc99_scanf(i8* getelementptr inbounds ([3 x i8], [3 x i8]* @.str, i64 0, i64 0), i32* nonnull %1)
  %4 = load i32, i32* %1, align 4, !tbaa !7
  %5 = icmp slt i32 %4, 4
  br i1 %5, label %48, label %6

6:                                                ; preds = %0, %40
  %7 = phi i32 [ %41, %40 ], [ %4, %0 ]
  %8 = phi i32 [ %42, %40 ], [ 0, %0 ]
  %9 = phi i32 [ %43, %40 ], [ 2, %0 ]
  %10 = icmp ugt i32 %9, 2
  %11 = and i32 %9, 1
  %12 = icmp eq i32 %11, 0
  br i1 %10, label %13, label %23

13:                                               ; preds = %6
  br i1 %12, label %40, label %14

14:                                               ; preds = %13, %17
  %15 = phi i32 [ %20, %17 ], [ 3, %13 ]
  %16 = icmp eq i32 %15, %9
  br i1 %16, label %21, label %17, !llvm.loop !5

17:                                               ; preds = %14
  %18 = urem i32 %9, %15
  %19 = icmp eq i32 %18, 0
  %20 = add nuw nsw i32 %15, 1
  br i1 %19, label %21, label %14, !llvm.loop !5

21:                                               ; preds = %14, %17
  %22 = icmp ult i32 %15, %9
  br label %24

23:                                               ; preds = %6
  br i1 %12, label %40, label %24

24:                                               ; preds = %21, %23
  %25 = phi i1 [ %22, %21 ], [ false, %23 ]
  %26 = add nuw nsw i32 %9, 2
  br label %27

27:                                               ; preds = %24, %30
  %28 = phi i32 [ %33, %30 ], [ 3, %24 ]
  %29 = icmp eq i32 %28, %26
  br i1 %29, label %34, label %30, !llvm.loop !5

30:                                               ; preds = %27
  %31 = urem i32 %26, %28
  %32 = icmp eq i32 %31, 0
  %33 = add nuw nsw i32 %28, 1
  br i1 %32, label %34, label %27, !llvm.loop !5

34:                                               ; preds = %30, %27
  %35 = icmp ult i32 %28, %26
  %36 = select i1 %25, i1 true, i1 %35
  br i1 %36, label %40, label %37

37:                                               ; preds = %34
  %38 = call i32 (i8*, ...) @printf(i8* nonnull dereferenceable(1) getelementptr inbounds ([7 x i8], [7 x i8]* @.str.1, i64 0, i64 0), i32 %9, i32 %26)
  %39 = load i32, i32* %1, align 4, !tbaa !7
  br label %40

40:                                               ; preds = %13, %23, %34, %37
  %41 = phi i32 [ %39, %37 ], [ %7, %34 ], [ %7, %23 ], [ %7, %13 ]
  %42 = phi i32 [ 1, %37 ], [ %8, %34 ], [ %8, %23 ], [ %8, %13 ]
  %43 = add nuw nsw i32 %9, 1
  %44 = add nsw i32 %41, -2
  %45 = icmp slt i32 %9, %44
  br i1 %45, label %6, label %46, !llvm.loop !11

46:                                               ; preds = %40
  %47 = icmp eq i32 %42, 0
  br i1 %47, label %48, label %50

48:                                               ; preds = %0, %46
  %49 = call i32 (i8*, ...) @printf(i8* nonnull dereferenceable(1) getelementptr inbounds ([6 x i8], [6 x i8]* @.str.2, i64 0, i64 0))
  br label %50

50:                                               ; preds = %48, %46
  call void @llvm.lifetime.end.p0i8(i64 4, i8* nonnull %2) #4
  ret i32 0
}

; Function Attrs: nofree nounwind
declare noundef i32 @__isoc99_scanf(i8* nocapture noundef readonly, ...) local_unnamed_addr #3

; Function Attrs: nofree nounwind
declare noundef i32 @printf(i8* nocapture noundef readonly, ...) local_unnamed_addr #3


!llvm.module.flags = !{!0, !1, !2, !3}
!llvm.ident = !{!4}

!0 = !{i32 1, !"wchar_size", i32 4}
!1 = !{i32 7, !"PIC Level", i32 2}
!2 = !{i32 7, !"PIE Level", i32 2}
!3 = !{i32 7, !"uwtable", i32 1}
!4 = !{!"clang version 13.0.0"}
!5 = distinct !{!5, !6}
!6 = !{!"llvm.loop.mustprogress"}
!7 = !{!8, !8, i64 0}
!8 = !{!"int", !9, i64 0}
!9 = !{!"omnipotent char", !10, i64 0}
!10 = !{!"Simple C/C++ TBAA"}
!11 = distinct !{!11, !6}
